target datalayout = "e-m:e-p270:32:32-p271:32:32-p272:64:64-i64:64-i128:128-f80:128-n8:16:32:64-S128"
target triple = "x86_64-pc-linux-gnu"

%"struct.faiss::VectorTransform" = type <{ ptr, i32, i32, i8, [7 x i8] }>
%"struct.faiss::LinearTransform" = type <{ %"struct.faiss::VectorTransform.base", i8, i8, [5 x i8], %"class.std::vector", %"class.std::vector", i8, [7 x i8] }>
%"struct.faiss::VectorTransform.base" = type <{ ptr, i32, i32, i8 }>
%"class.std::vector" = type { %"struct.std::_Vector_base" }
%"struct.std::_Vector_base" = type { %"struct.std::_Vector_base<float, std::allocator<float>>::_Vector_impl" }
%"struct.std::_Vector_base<float, std::allocator<float>>::_Vector_impl" = type { %"struct.std::_Vector_base<float, std::allocator<float>>::_Vector_impl_data" }
%"struct.std::_Vector_base<float, std::allocator<float>>::_Vector_impl_data" = type { ptr, ptr, ptr }

@.str.13 = private unnamed_addr constant [4 x i8] c"Not\00", align 1

; Function Attrs: mustprogress nounwind uwtable
define linkonce_odr noundef ptr @_ZNKSt6vectorIfSaIfEE11_M_data_ptrIfEEPT_S4_(ptr noundef nonnull align 8 dereferenceable(24) %0, ptr noundef %1) #0 comdat align 2 {
  %3 = alloca ptr, align 8
  %4 = alloca ptr, align 8
  store ptr %0, ptr %3, align 8, !tbaa !169
  store ptr %1, ptr %4, align 8, !tbaa !11
  %5 = load ptr, ptr %4, align 8, !tbaa !11
  ret ptr %5
}

; Function Attrs: mustprogress nounwind uwtable
define linkonce_odr noundef ptr @_ZNKSt6vectorIfSaIfEE4dataEv(ptr noundef nonnull align 8 dereferenceable(24) %0) #0 comdat align 2 {
  %2 = alloca ptr, align 8
  store ptr %0, ptr %2, align 8, !tbaa !169
  %3 = load ptr, ptr %2, align 8
  %4 = getelementptr inbounds nuw %"struct.std::_Vector_base", ptr %3, i32 0, i32 0
  %5 = getelementptr inbounds nuw %"struct.std::_Vector_base<float, std::allocator<float>>::_Vector_impl_data", ptr %4, i32 0, i32 0
  %6 = load ptr, ptr %5, align 8, !tbaa !178
  %7 = call noundef ptr @_ZNKSt6vectorIfSaIfEE11_M_data_ptrIfEEPT_S4_(ptr noundef nonnull align 8 dereferenceable(24) %3, ptr noundef %6) #19
  ret ptr %7
}

; Function Attrs: mustprogress nounwind uwtable
define linkonce_odr noundef nonnull align 4 dereferenceable(4) ptr @_ZNKSt6vectorIfSaIfEEixEm(ptr noundef nonnull align 8 dereferenceable(24) %0, i64 noundef %1) #0 comdat align 2 {
  %3 = alloca ptr, align 8
  %4 = alloca i64, align 8
  store ptr %0, ptr %3, align 8, !tbaa !169
  store i64 %1, ptr %4, align 8, !tbaa !9
  %5 = load ptr, ptr %3, align 8
  %6 = getelementptr inbounds nuw %"struct.std::_Vector_base", ptr %5, i32 0, i32 0
  %7 = getelementptr inbounds nuw %"struct.std::_Vector_base<float, std::allocator<float>>::_Vector_impl_data", ptr %6, i32 0, i32 0
  %8 = load ptr, ptr %7, align 8, !tbaa !178
  %9 = load i64, ptr %4, align 8, !tbaa !9
  %10 = getelementptr inbounds nuw float, ptr %8, i64 %9
  ret ptr %10
}

; Function Attrs: mustprogress uwtable
define void @_ZNK5faiss15LinearTransform19transform_transposeElPKfPf(ptr noundef nonnull align 8 dereferenceable(73) %0, i64 noundef %1, ptr noundef %2, ptr noundef %3) #1 align 2 {
  %5 = alloca ptr, align 8
  %6 = alloca i64, align 8
  %7 = alloca ptr, align 8
  %8 = alloca ptr, align 8
  %9 = alloca ptr, align 8
  %10 = alloca ptr, align 8
  %11 = alloca ptr, align 8
  %12 = alloca i64, align 8
  %13 = alloca i32, align 4
  %14 = alloca i32, align 4
  %15 = alloca i32, align 4
  %16 = alloca i32, align 4
  %17 = alloca i32, align 4
  %18 = alloca float, align 4
  %19 = alloca float, align 4
  store ptr %0, ptr %5, align 8, !tbaa !13
  store i64 %1, ptr %6, align 8, !tbaa !9
  store ptr %2, ptr %7, align 8, !tbaa !11
  store ptr %3, ptr %8, align 8, !tbaa !11
  %20 = load ptr, ptr %5, align 8
  %21 = getelementptr inbounds nuw %"struct.faiss::LinearTransform", ptr %20, i32 0, i32 1
  %22 = load i8, ptr %21, align 1, !tbaa !22, !range !19, !noundef !20
  %23 = trunc i8 %22 to i1
  br i1 %23, label %24, label %70

24:                                               ; preds = %4
  call void @llvm.lifetime.start.p0(i64 8, ptr %9) #19
  %25 = load i64, ptr %6, align 8, !tbaa !9
  %26 = getelementptr inbounds nuw %"struct.faiss::VectorTransform", ptr %20, i32 0, i32 2
  %27 = load i32, ptr %26, align 4, !tbaa !28
  %28 = sext i32 %27 to i64
  %29 = mul nsw i64 %25, %28
  %30 = call { i64, i1 } @llvm.umul.with.overflow.i64(i64 %29, i64 4)
  %31 = extractvalue { i64, i1 } %30, 1
  %32 = extractvalue { i64, i1 } %30, 0
  %33 = select i1 %31, i64 -1, i64 %32
  %34 = call noalias noundef nonnull ptr @_Znam(i64 noundef %33) #23
  store ptr %34, ptr %9, align 8, !tbaa !11
  call void @llvm.lifetime.start.p0(i64 8, ptr %10) #19
  %35 = load ptr, ptr %7, align 8, !tbaa !11
  store ptr %35, ptr %10, align 8, !tbaa !11
  call void @llvm.lifetime.start.p0(i64 8, ptr %11) #19
  %36 = load ptr, ptr %9, align 8, !tbaa !11
  store ptr %36, ptr %11, align 8, !tbaa !11
  call void @llvm.lifetime.start.p0(i64 8, ptr %12) #19
  store i64 0, ptr %12, align 8, !tbaa !9
  br label %37

37:                                               ; preds = %65, %24
  %38 = load i64, ptr %12, align 8, !tbaa !9
  %39 = load i64, ptr %6, align 8, !tbaa !9
  %40 = icmp slt i64 %38, %39
  br i1 %40, label %42, label %41

41:                                               ; preds = %37
  store i32 2, ptr %13, align 4
  call void @llvm.lifetime.end.p0(i64 8, ptr %12) #19
  br label %68

42:                                               ; preds = %37
  call void @llvm.lifetime.start.p0(i64 4, ptr %14) #19
  store i32 0, ptr %14, align 4, !tbaa !21
  br label %43

43:                                               ; preds = %61, %42
  %44 = load i32, ptr %14, align 4, !tbaa !21
  %45 = getelementptr inbounds nuw %"struct.faiss::VectorTransform", ptr %20, i32 0, i32 2
  %46 = load i32, ptr %45, align 4, !tbaa !28
  %47 = icmp slt i32 %44, %46
  br i1 %47, label %49, label %48

48:                                               ; preds = %43
  store i32 5, ptr %13, align 4
  call void @llvm.lifetime.end.p0(i64 4, ptr %14) #19
  br label %64

49:                                               ; preds = %43
  %50 = load ptr, ptr %10, align 8, !tbaa !11
  %51 = getelementptr inbounds nuw float, ptr %50, i32 1
  store ptr %51, ptr %10, align 8, !tbaa !11
  %52 = load float, ptr %50, align 4, !tbaa !29
  %53 = getelementptr inbounds nuw %"struct.faiss::LinearTransform", ptr %20, i32 0, i32 5
  %54 = load i32, ptr %14, align 4, !tbaa !21
  %55 = sext i32 %54 to i64
  %56 = call noundef nonnull align 4 dereferenceable(4) ptr @_ZNKSt6vectorIfSaIfEEixEm(ptr noundef nonnull align 8 dereferenceable(24) %53, i64 noundef %55) #19
  %57 = load float, ptr %56, align 4, !tbaa !29
  %58 = fsub float %52, %57
  %59 = load ptr, ptr %11, align 8, !tbaa !11
  %60 = getelementptr inbounds nuw float, ptr %59, i32 1
  store ptr %60, ptr %11, align 8, !tbaa !11
  store float %58, ptr %59, align 4, !tbaa !29
  br label %61

61:                                               ; preds = %49
  %62 = load i32, ptr %14, align 4, !tbaa !21
  %63 = add nsw i32 %62, 1
  store i32 %63, ptr %14, align 4, !tbaa !21
  br label %43, !llvm.loop !179

64:                                               ; preds = %48
  br label %65

65:                                               ; preds = %64
  %66 = load i64, ptr %12, align 8, !tbaa !9
  %67 = add nsw i64 %66, 1
  store i64 %67, ptr %12, align 8, !tbaa !9
  br label %37, !llvm.loop !180

68:                                               ; preds = %41
  %69 = load ptr, ptr %9, align 8, !tbaa !11
  store ptr %69, ptr %7, align 8, !tbaa !11
  call void @llvm.lifetime.end.p0(i64 8, ptr %11) #19
  call void @llvm.lifetime.end.p0(i64 8, ptr %10) #19
  call void @llvm.lifetime.end.p0(i64 8, ptr %9) #19
  br label %70

70:                                               ; preds = %68, %4
  call void @llvm.lifetime.start.p0(i64 4, ptr %15) #19
  %71 = getelementptr inbounds nuw %"struct.faiss::VectorTransform", ptr %20, i32 0, i32 1
  %72 = load i32, ptr %71, align 8, !tbaa !34
  store i32 %72, ptr %15, align 4, !tbaa !21
  call void @llvm.lifetime.start.p0(i64 4, ptr %16) #19
  %73 = getelementptr inbounds nuw %"struct.faiss::VectorTransform", ptr %20, i32 0, i32 2
  %74 = load i32, ptr %73, align 4, !tbaa !28
  store i32 %74, ptr %16, align 4, !tbaa !21
  call void @llvm.lifetime.start.p0(i64 4, ptr %17) #19
  %75 = load i64, ptr %6, align 8, !tbaa !9
  %76 = trunc i64 %75 to i32
  store i32 %76, ptr %17, align 4, !tbaa !21
  call void @llvm.lifetime.start.p0(i64 4, ptr %18) #19
  store float 1.000000e+00, ptr %18, align 4, !tbaa !29
  call void @llvm.lifetime.start.p0(i64 4, ptr %19) #19
  store float 0.000000e+00, ptr %19, align 4, !tbaa !29
  %77 = getelementptr inbounds nuw %"struct.faiss::LinearTransform", ptr %20, i32 0, i32 4
  %78 = call noundef ptr @_ZNKSt6vectorIfSaIfEE4dataEv(ptr noundef nonnull align 8 dereferenceable(24) %77) #19
  %79 = load ptr, ptr %7, align 8, !tbaa !11
  %80 = load ptr, ptr %8, align 8, !tbaa !11
  %81 = call i32 @sgemm_(ptr noundef @.str.13, ptr noundef @.str.13, ptr noundef %15, ptr noundef %17, ptr noundef %16, ptr noundef %18, ptr noundef %78, ptr noundef %15, ptr noundef %79, ptr noundef %16, ptr noundef %19, ptr noundef %80, ptr noundef %15)
  call void @llvm.lifetime.end.p0(i64 4, ptr %19) #19
  call void @llvm.lifetime.end.p0(i64 4, ptr %18) #19
  call void @llvm.lifetime.end.p0(i64 4, ptr %17) #19
  call void @llvm.lifetime.end.p0(i64 4, ptr %16) #19
  call void @llvm.lifetime.end.p0(i64 4, ptr %15) #19
  %82 = getelementptr inbounds nuw %"struct.faiss::LinearTransform", ptr %20, i32 0, i32 1
  %83 = load i8, ptr %82, align 1, !tbaa !22, !range !19, !noundef !20
  %84 = trunc i8 %83 to i1
  br i1 %84, label %85, label %90

85:                                               ; preds = %70
  %86 = load ptr, ptr %7, align 8, !tbaa !11
  %87 = icmp eq ptr %86, null
  br i1 %87, label %89, label %88

88:                                               ; preds = %85
  call void @_ZdaPv(ptr noundef %86) #22
  br label %89

89:                                               ; preds = %88, %85
  br label %90

90:                                               ; preds = %89, %70
  ret void
}