; Function Attrs: mustprogress uwtable
define void @_ZNK5faiss15LinearTransform19transform_transposeElPKfPf(ptr noundef nonnull readonly align 8 captures(none) dereferenceable(73) %0, i64 noundef %1, ptr noundef %2, ptr noundef %3) local_unnamed_addr #3 align 2 {
  %5 = alloca i32, align 4
  %6 = alloca i32, align 4
  %7 = alloca i32, align 4
  %8 = alloca float, align 4
  %9 = alloca float, align 4
  %10 = getelementptr inbounds nuw i8, ptr %0, i64 17
  %11 = load i8, ptr %10, align 1, !tbaa !22, !range !20, !noundef !21
  %12 = trunc nuw i8 %11 to i1
  %13 = getelementptr inbounds nuw i8, ptr %0, i64 12
  %14 = load i32, ptr %13, align 4, !tbaa !29
  br i1 %12, label %15, label %.loopexit

15:                                               ; preds = %4
  %16 = sext i32 %14 to i64
  %17 = mul nsw i64 %1, %16
  %18 = icmp ugt i64 %17, 4611686018427387903
  %19 = shl i64 %17, 2
  %20 = select i1 %18, i64 -1, i64 %19
  %21 = tail call noalias noundef nonnull ptr @_Znam(i64 noundef %20) #32
  %22 = icmp sgt i64 %1, 0
  br i1 %22, label %.preheader.lr.ph, label %.loopexit

.preheader.lr.ph:                                 ; preds = %15
  %23 = icmp sgt i32 %14, 0
  %24 = getelementptr inbounds nuw i8, ptr %0, i64 48
  %25 = load ptr, ptr %24, align 8
  br i1 %23, label %.preheader.us.preheader, label %.loopexit

.preheader.us.preheader:                          ; preds = %.preheader.lr.ph
  %wide.trip.count = zext nneg i32 %14 to i64
  br label %.preheader.us

.preheader.us:                                    ; preds = %.preheader.us.preheader, %._crit_edge.us
  %.01628.us = phi i64 [ %33, %._crit_edge.us ], [ 0, %.preheader.us.preheader ]
  %.01727.us = phi ptr [ %32, %._crit_edge.us ], [ %21, %.preheader.us.preheader ]
  %.01826.us = phi ptr [ %27, %._crit_edge.us ], [ %2, %.preheader.us.preheader ]
  br label %26

26:                                               ; preds = %.preheader.us, %26
  %indvars.iv = phi i64 [ 0, %.preheader.us ], [ %indvars.iv.next, %26 ]
  %.123.us = phi ptr [ %.01727.us, %.preheader.us ], [ %32, %26 ]
  %.11922.us = phi ptr [ %.01826.us, %.preheader.us ], [ %27, %26 ]
  %27 = getelementptr inbounds nuw i8, ptr %.11922.us, i64 4
  %28 = load float, ptr %.11922.us, align 4, !tbaa !32
  %29 = getelementptr inbounds nuw float, ptr %25, i64 %indvars.iv
  %30 = load float, ptr %29, align 4, !tbaa !32
  %31 = fsub float %28, %30
  %32 = getelementptr inbounds nuw i8, ptr %.123.us, i64 4
  store float %31, ptr %.123.us, align 4, !tbaa !32
  %indvars.iv.next = add nuw nsw i64 %indvars.iv, 1
  %exitcond.not = icmp eq i64 %indvars.iv.next, %wide.trip.count
  br i1 %exitcond.not, label %._crit_edge.us, label %26, !llvm.loop !139

._crit_edge.us:                                   ; preds = %26
  %33 = add nuw nsw i64 %.01628.us, 1
  %exitcond32.not = icmp eq i64 %33, %1
  br i1 %exitcond32.not, label %.loopexit, label %.preheader.us, !llvm.loop !140

.loopexit:                                        ; preds = %._crit_edge.us, %4, %.preheader.lr.ph, %15
  %.020 = phi ptr [ %21, %15 ], [ %21, %.preheader.lr.ph ], [ %2, %4 ], [ %21, %._crit_edge.us ]
  call void @llvm.lifetime.start.p0(i64 4, ptr nonnull %5) #28
  %34 = getelementptr inbounds nuw i8, ptr %0, i64 8
  %35 = load i32, ptr %34, align 8, !tbaa !37
  store i32 %35, ptr %5, align 4, !tbaa !38
  call void @llvm.lifetime.start.p0(i64 4, ptr nonnull %6) #28
  store i32 %14, ptr %6, align 4, !tbaa !38
  call void @llvm.lifetime.start.p0(i64 4, ptr nonnull %7) #28
  %36 = trunc i64 %1 to i32
  store i32 %36, ptr %7, align 4, !tbaa !38
  call void @llvm.lifetime.start.p0(i64 4, ptr nonnull %8) #28
  store float 1.000000e+00, ptr %8, align 4, !tbaa !32
  call void @llvm.lifetime.start.p0(i64 4, ptr nonnull %9) #28
  store float 0.000000e+00, ptr %9, align 4, !tbaa !32
  %37 = getelementptr inbounds nuw i8, ptr %0, i64 24
  %38 = load ptr, ptr %37, align 8, !tbaa !31
  %39 = call i32 @sgemm_(ptr noundef nonnull @.str.13, ptr noundef nonnull @.str.13, ptr noundef nonnull %5, ptr noundef nonnull %7, ptr noundef nonnull %6, ptr noundef nonnull %8, ptr noundef %38, ptr noundef nonnull %5, ptr noundef %.020, ptr noundef nonnull %6, ptr noundef nonnull %9, ptr noundef %3, ptr noundef nonnull %5)
  call void @llvm.lifetime.end.p0(i64 4, ptr nonnull %9) #28
  call void @llvm.lifetime.end.p0(i64 4, ptr nonnull %8) #28
  call void @llvm.lifetime.end.p0(i64 4, ptr nonnull %7) #28
  call void @llvm.lifetime.end.p0(i64 4, ptr nonnull %6) #28
  call void @llvm.lifetime.end.p0(i64 4, ptr nonnull %5) #28
  %40 = load i8, ptr %10, align 1, !tbaa !22, !range !20, !noundef !21
  %41 = trunc nuw i8 %40 to i1
  %42 = icmp ne ptr %.020, null
  %or.cond.not = and i1 %42, %41
  br i1 %or.cond.not, label %43, label %44

43:                                               ; preds = %.loopexit
  call void @_ZdaPv(ptr noundef nonnull %.020) #30
  br label %44

44:                                               ; preds = %43, %.loopexit
  ret void
}